; Function Attrs: nounwind uwtable
define dso_local ptr @luaL_gsub(ptr noundef %0, ptr noundef %1, ptr noundef readonly captures(none) %2, ptr noundef readonly captures(none) %3) local_unnamed_addr #0 {
  %5 = alloca %struct.luaL_Buffer, align 8
  %6 = tail call i64 @strlen(ptr noundef nonnull dereferenceable(1) %2) #18
  call void @llvm.lifetime.start.p0(i64 8216, ptr nonnull %5) #17
  %7 = getelementptr inbounds nuw i8, ptr %5, i64 16
  store ptr %0, ptr %7, align 8, !tbaa !26
  %8 = getelementptr inbounds nuw i8, ptr %5, i64 24
  store ptr %8, ptr %5, align 8, !tbaa !29
  %9 = getelementptr inbounds nuw i8, ptr %5, i64 8
  store i32 0, ptr %9, align 8, !tbaa !30
  %10 = call ptr @strstr(ptr noundef nonnull dereferenceable(1) %1, ptr noundef nonnull dereferenceable(1) %2) #18
  %.not28 = icmp eq ptr %10, null
  br i1 %.not28, label %._crit_edge, label %.lr.ph

.lr.ph:                                           ; preds = %4
  %11 = getelementptr inbounds nuw i8, ptr %5, i64 8216
  %12 = ptrtoint ptr %8 to i64
  br label %13

13:                                               ; preds = %.lr.ph, %luaL_addstring.exit
  %14 = phi ptr [ %10, %.lr.ph ], [ %80, %luaL_addstring.exit ]
  %.029 = phi ptr [ %1, %.lr.ph ], [ %79, %luaL_addstring.exit ]
  %15 = ptrtoint ptr %14 to i64
  %16 = ptrtoint ptr %.029 to i64
  %17 = sub i64 %15, %16
  %.not6.i = icmp eq i64 %17, 0
  br i1 %.not6.i, label %luaL_addlstring.exit, label %.lr.ph.i

.lr.ph.i:                                         ; preds = %13, %luaL_prepbuffer.exit
  %.in.i = phi i64 [ %18, %luaL_prepbuffer.exit ], [ %17, %13 ]
  %.057.i = phi ptr [ %45, %luaL_prepbuffer.exit ], [ %.029, %13 ]
  %18 = add i64 %.in.i, -1
  %19 = load ptr, ptr %5, align 8, !tbaa !29
  %20 = icmp ult ptr %19, %11
  br i1 %20, label %luaL_prepbuffer.exit, label %21

21:                                               ; preds = %.lr.ph.i
  %22 = ptrtoint ptr %19 to i64
  %23 = sub i64 %22, %12
  %24 = load ptr, ptr %7, align 8, !tbaa !26
  call void @lua_pushlstring(ptr noundef %24, ptr noundef nonnull %8, i64 noundef %23) #17
  store ptr %8, ptr %5, align 8, !tbaa !29
  %25 = load i32, ptr %9, align 8, !tbaa !30
  %26 = add nsw i32 %25, 1
  store i32 %26, ptr %9, align 8, !tbaa !30
  %27 = icmp sgt i32 %25, 0
  br i1 %27, label %28, label %luaL_prepbuffer.exit

28:                                               ; preds = %21
  %29 = load ptr, ptr %7, align 8, !tbaa !26
  %30 = call i64 @lua_objlen(ptr noundef %29, i32 noundef -1) #17
  br label %31

31:                                               ; preds = %31, %28
  %.020.i.i = phi i64 [ %30, %28 ], [ %39, %31 ]
  %.019.i.i = phi i32 [ 1, %28 ], [ %32, %31 ]
  %32 = add nuw nsw i32 %.019.i.i, 1
  %33 = xor i32 %.019.i.i, -1
  %34 = call i64 @lua_objlen(ptr noundef %29, i32 noundef %33) #17
  %35 = load i32, ptr %9, align 8, !tbaa !30
  %36 = sub nsw i32 %35, %.019.i.i
  %37 = icmp sgt i32 %36, 8
  %38 = icmp ugt i64 %.020.i.i, %34
  %or.cond.i.i = select i1 %37, i1 true, i1 %38
  %39 = add i64 %34, %.020.i.i
  %40 = icmp slt i32 %32, %35
  %or.cond22.i.i = select i1 %or.cond.i.i, i1 %40, i1 false
  br i1 %or.cond22.i.i, label %31, label %41, !llvm.loop !31

41:                                               ; preds = %31
  %.1.i.i = select i1 %or.cond.i.i, i32 %32, i32 %.019.i.i
  call void @lua_concat(ptr noundef %29, i32 noundef %.1.i.i) #17
  %42 = load i32, ptr %9, align 8, !tbaa !30
  %reass.sub = sub i32 %42, %.1.i.i
  %43 = add i32 %reass.sub, 1
  store i32 %43, ptr %9, align 8, !tbaa !30
  %.pre.i.pre = load ptr, ptr %5, align 8, !tbaa !29
  br label %luaL_prepbuffer.exit

luaL_prepbuffer.exit:                             ; preds = %41, %21, %.lr.ph.i
  %44 = phi ptr [ %19, %.lr.ph.i ], [ %8, %21 ], [ %.pre.i.pre, %41 ]
  %45 = getelementptr inbounds nuw i8, ptr %.057.i, i64 1
  %46 = load i8, ptr %.057.i, align 1, !tbaa !24
  %47 = getelementptr inbounds nuw i8, ptr %44, i64 1
  store ptr %47, ptr %5, align 8, !tbaa !29
  store i8 %46, ptr %44, align 1, !tbaa !24
  %.not.i = icmp eq i64 %18, 0
  br i1 %.not.i, label %luaL_addlstring.exit, label %.lr.ph.i, !llvm.loop !32

luaL_addlstring.exit:                             ; preds = %luaL_prepbuffer.exit, %13
  %48 = call i64 @strlen(ptr noundef nonnull readonly dereferenceable(1) %3) #18
  %.not6.i.i = icmp eq i64 %48, 0
  br i1 %.not6.i.i, label %luaL_addstring.exit, label %.lr.ph.i.i

.lr.ph.i.i:                                       ; preds = %luaL_addlstring.exit, %luaL_prepbuffer.exit26
  %.in.i.i = phi i64 [ %49, %luaL_prepbuffer.exit26 ], [ %48, %luaL_addlstring.exit ]
  %.057.i.i = phi ptr [ %76, %luaL_prepbuffer.exit26 ], [ %3, %luaL_addlstring.exit ]
  %49 = add i64 %.in.i.i, -1
  %50 = load ptr, ptr %5, align 8, !tbaa !29
  %51 = icmp ult ptr %50, %11
  br i1 %51, label %luaL_prepbuffer.exit26, label %52

52:                                               ; preds = %.lr.ph.i.i
  %53 = ptrtoint ptr %50 to i64
  %54 = sub i64 %53, %12
  %55 = load ptr, ptr %7, align 8, !tbaa !26
  call void @lua_pushlstring(ptr noundef %55, ptr noundef nonnull %8, i64 noundef %54) #17
  store ptr %8, ptr %5, align 8, !tbaa !29
  %56 = load i32, ptr %9, align 8, !tbaa !30
  %57 = add nsw i32 %56, 1
  store i32 %57, ptr %9, align 8, !tbaa !30
  %58 = icmp sgt i32 %56, 0
  br i1 %58, label %59, label %luaL_prepbuffer.exit26

59:                                               ; preds = %52
  %60 = load ptr, ptr %7, align 8, !tbaa !26
  %61 = call i64 @lua_objlen(ptr noundef %60, i32 noundef -1) #17
  br label %62

62:                                               ; preds = %62, %59
  %.020.i.i20 = phi i64 [ %61, %59 ], [ %70, %62 ]
  %.019.i.i21 = phi i32 [ 1, %59 ], [ %63, %62 ]
  %63 = add nuw nsw i32 %.019.i.i21, 1
  %64 = xor i32 %.019.i.i21, -1
  %65 = call i64 @lua_objlen(ptr noundef %60, i32 noundef %64) #17
  %66 = load i32, ptr %9, align 8, !tbaa !30
  %67 = sub nsw i32 %66, %.019.i.i21
  %68 = icmp sgt i32 %67, 8
  %69 = icmp ugt i64 %.020.i.i20, %65
  %or.cond.i.i22 = select i1 %68, i1 true, i1 %69
  %70 = add i64 %65, %.020.i.i20
  %71 = icmp slt i32 %63, %66
  %or.cond22.i.i23 = select i1 %or.cond.i.i22, i1 %71, i1 false
  br i1 %or.cond22.i.i23, label %62, label %72, !llvm.loop !31

72:                                               ; preds = %62
  %.1.i.i24 = select i1 %or.cond.i.i22, i32 %63, i32 %.019.i.i21
  call void @lua_concat(ptr noundef %60, i32 noundef %.1.i.i24) #17
  %73 = load i32, ptr %9, align 8, !tbaa !30
  %reass.sub30 = sub i32 %73, %.1.i.i24
  %74 = add i32 %reass.sub30, 1
  store i32 %74, ptr %9, align 8, !tbaa !30
  %.pre.i.i.pre = load ptr, ptr %5, align 8, !tbaa !29
  br label %luaL_prepbuffer.exit26

luaL_prepbuffer.exit26:                           ; preds = %72, %52, %.lr.ph.i.i
  %75 = phi ptr [ %50, %.lr.ph.i.i ], [ %8, %52 ], [ %.pre.i.i.pre, %72 ]
  %76 = getelementptr inbounds nuw i8, ptr %.057.i.i, i64 1
  %77 = load i8, ptr %.057.i.i, align 1, !tbaa !24
  %78 = getelementptr inbounds nuw i8, ptr %75, i64 1
  store ptr %78, ptr %5, align 8, !tbaa !29
  store i8 %77, ptr %75, align 1, !tbaa !24
  %.not.i.i = icmp eq i64 %49, 0
  br i1 %.not.i.i, label %luaL_addstring.exit, label %.lr.ph.i.i, !llvm.loop !32

luaL_addstring.exit:                              ; preds = %luaL_prepbuffer.exit26, %luaL_addlstring.exit
  %79 = getelementptr inbounds nuw i8, ptr %14, i64 %6
  %80 = call ptr @strstr(ptr noundef nonnull dereferenceable(1) %79, ptr noundef nonnull dereferenceable(1) %2) #18
  %.not = icmp eq ptr %80, null
  br i1 %.not, label %._crit_edge, label %13, !llvm.loop !33

._crit_edge:                                      ; preds = %luaL_addstring.exit, %4
  %.0.lcssa = phi ptr [ %1, %4 ], [ %79, %luaL_addstring.exit ]
  %81 = call i64 @strlen(ptr noundef nonnull readonly dereferenceable(1) %.0.lcssa) #18
  %.not6.i.i12 = icmp eq i64 %81, 0
  br i1 %.not6.i.i12, label %luaL_addstring.exit18, label %.lr.ph.i.i13

.lr.ph.i.i13:                                     ; preds = %._crit_edge
  %82 = getelementptr inbounds nuw i8, ptr %5, i64 8216
  br label %83

83:                                               ; preds = %89, %.lr.ph.i.i13
  %.in.i.i14 = phi i64 [ %81, %.lr.ph.i.i13 ], [ %84, %89 ]
  %.057.i.i15 = phi ptr [ %.0.lcssa, %.lr.ph.i.i13 ], [ %91, %89 ]
  %84 = add i64 %.in.i.i14, -1
  %85 = load ptr, ptr %5, align 8, !tbaa !29
  %86 = icmp ult ptr %85, %82
  br i1 %86, label %89, label %87

87:                                               ; preds = %83
  %88 = call ptr @luaL_prepbuffer(ptr noundef nonnull %5)
  %.pre.i.i16 = load ptr, ptr %5, align 8, !tbaa !29
  br label %89

89:                                               ; preds = %87, %83
  %90 = phi ptr [ %.pre.i.i16, %87 ], [ %85, %83 ]
  %91 = getelementptr inbounds nuw i8, ptr %.057.i.i15, i64 1
  %92 = load i8, ptr %.057.i.i15, align 1, !tbaa !24
  %93 = getelementptr inbounds nuw i8, ptr %90, i64 1
  store ptr %93, ptr %5, align 8, !tbaa !29
  store i8 %92, ptr %90, align 1, !tbaa !24
  %.not.i.i17 = icmp eq i64 %84, 0
  br i1 %.not.i.i17, label %luaL_addstring.exit18, label %83, !llvm.loop !32

luaL_addstring.exit18:                            ; preds = %89, %._crit_edge
  %94 = load ptr, ptr %5, align 8, !tbaa !29
  %95 = icmp eq ptr %94, %8
  br i1 %95, label %.emptybuffer.exit_crit_edge.i, label %96

.emptybuffer.exit_crit_edge.i:                    ; preds = %luaL_addstring.exit18
  %.pre.i19 = load i32, ptr %9, align 8, !tbaa !30
  br label %luaL_pushresult.exit

96:                                               ; preds = %luaL_addstring.exit18
  %97 = ptrtoint ptr %8 to i64
  %98 = ptrtoint ptr %94 to i64
  %99 = sub i64 %98, %97
  %100 = load ptr, ptr %7, align 8, !tbaa !26
  call void @lua_pushlstring(ptr noundef %100, ptr noundef nonnull %8, i64 noundef %99) #17
  store ptr %8, ptr %5, align 8, !tbaa !29
  %101 = load i32, ptr %9, align 8, !tbaa !30
  %102 = add nsw i32 %101, 1
  store i32 %102, ptr %9, align 8, !tbaa !30
  br label %luaL_pushresult.exit

luaL_pushresult.exit:                             ; preds = %.emptybuffer.exit_crit_edge.i, %96
  %103 = phi i32 [ %.pre.i19, %.emptybuffer.exit_crit_edge.i ], [ %102, %96 ]
  %104 = load ptr, ptr %7, align 8, !tbaa !26
  call void @lua_concat(ptr noundef %104, i32 noundef %103) #17
  store i32 1, ptr %9, align 8, !tbaa !30
  %105 = call ptr @lua_tolstring(ptr noundef %0, i32 noundef -1, ptr noundef null) #17
  call void @llvm.lifetime.end.p0(i64 8216, ptr nonnull %5) #17
  ret ptr %105
}